; Function Attrs: mustprogress nofree norecurse nosync nounwind willreturn memory(argmem: write) uwtable
define void @_ZN6icu_7518NGramParser_IBM420C2EPKiPKh(ptr nocapture noundef nonnull writeonly align 8 dereferenceable(52) %this, ptr noundef %theNgramList, ptr noundef %theCharMap) unnamed_addr #0 align 2 {
entry:
  %ngram.i = getelementptr inbounds i8, ptr %this, i64 8
  store i32 0, ptr %ngram.i, align 8
  %byteIndex.i = getelementptr inbounds i8, ptr %this, i64 32
  store i32 0, ptr %byteIndex.i, align 8
  %ngramList.i = getelementptr inbounds i8, ptr %this, i64 16
  store ptr %theNgramList, ptr %ngramList.i, align 8
  %charMap.i = getelementptr inbounds i8, ptr %this, i64 40
  store ptr %theCharMap, ptr %charMap.i, align 8
  %hitCount.i = getelementptr inbounds i8, ptr %this, i64 28
  store i32 0, ptr %hitCount.i, align 4
  %ngramCount.i = getelementptr inbounds i8, ptr %this, i64 24
  store i32 0, ptr %ngramCount.i, align 8
  store ptr getelementptr inbounds ({ [6 x ptr] }, ptr @_ZTVN6icu_7518NGramParser_IBM420E, i64 0, i32 0, i64 2), ptr %this, align 8
  %alef = getelementptr inbounds i8, ptr %this, i64 48
  store i32 0, ptr %alef, align 8
  ret void
}